target datalayout = "e-m:e-p270:32:32-p271:32:32-p272:64:64-i64:64-i128:128-f80:128-n8:16:32:64-S128"
target triple = "x86_64-pc-linux-gnu"

%struct.nameData = type { [64 x i8] }
%struct.HeapTupleData = type { i32, %struct.ItemPointerData, i32, ptr }
%struct.ItemPointerData = type { %struct.BlockIdData, i16 }
%struct.BlockIdData = type { i16, i16 }
%struct.HeapTupleHeaderData = type { %union.anon, %struct.ItemPointerData, i16, i16, i8, [0 x i8] }
%union.anon = type { %struct.HeapTupleFields }
%struct.HeapTupleFields = type { i32, i32, %union.anon.0 }
%union.anon.0 = type { i32 }
%struct.FormData_pg_am = type { i32, %struct.nameData, i32, i8 }
%struct.FormData_pg_opfamily = type { i32, i32, %struct.nameData, i32, i32 }

@.str.1 = private unnamed_addr constant [16 x i8] c"objectaddress.c\00", align 1
@.str.41 = private unnamed_addr constant [41 x i8] c"cache lookup failed for access method %u\00", align 1
@.str.242 = private unnamed_addr constant [36 x i8] c"cache lookup failed for opfamily %u\00", align 1
@__func__.getOpFamilyDescription = private unnamed_addr constant [23 x i8] c"getOpFamilyDescription\00", align 1
@.str.243 = private unnamed_addr constant [40 x i8] c"operator family %s for access method %s\00", align 1

; Function Attrs: inlinehint nounwind uwtable
define internal ptr @GETSTRUCT(ptr noundef %0) #4 {
  %2 = alloca ptr, align 8
  store ptr %0, ptr %2, align 8
  %3 = load ptr, ptr %2, align 8
  %4 = getelementptr inbounds nuw %struct.HeapTupleData, ptr %3, i32 0, i32 3
  %5 = load ptr, ptr %4, align 8
  %6 = load ptr, ptr %2, align 8
  %7 = getelementptr inbounds nuw %struct.HeapTupleData, ptr %6, i32 0, i32 3
  %8 = load ptr, ptr %7, align 8
  %9 = getelementptr inbounds nuw %struct.HeapTupleHeaderData, ptr %8, i32 0, i32 4
  %10 = load i8, ptr %9, align 2
  %11 = zext i8 %10 to i32
  %12 = sext i32 %11 to i64
  %13 = getelementptr inbounds i8, ptr %5, i64 %12
  ret ptr %13
}

; Function Attrs: inlinehint nounwind uwtable
define internal i64 @ObjectIdGetDatum(i32 noundef %0) #4 {
  %2 = alloca i32, align 4
  store i32 %0, ptr %2, align 4
  %3 = load i32, ptr %2, align 4
  %4 = zext i32 %3 to i64
  ret i64 %4
}

; Function Attrs: nounwind uwtable
define internal void @getOpFamilyDescription(ptr noundef %0, i32 noundef %1, i1 noundef zeroext %2) #0 {
  %4 = alloca ptr, align 8
  %5 = alloca i32, align 4
  %6 = alloca i8, align 1
  %7 = alloca ptr, align 8
  %8 = alloca ptr, align 8
  %9 = alloca ptr, align 8
  %10 = alloca ptr, align 8
  %11 = alloca ptr, align 8
  %12 = alloca i32, align 4
  store ptr %0, ptr %4, align 8
  store i32 %1, ptr %5, align 4
  %13 = zext i1 %2 to i8
  store i8 %13, ptr %6, align 1
  call void @llvm.lifetime.start.p0(i64 8, ptr %7) #10
  call void @llvm.lifetime.start.p0(i64 8, ptr %8) #10
  call void @llvm.lifetime.start.p0(i64 8, ptr %9) #10
  call void @llvm.lifetime.start.p0(i64 8, ptr %10) #10
  call void @llvm.lifetime.start.p0(i64 8, ptr %11) #10
  %14 = load i32, ptr %5, align 4
  %15 = call i64 @ObjectIdGetDatum(i32 noundef %14)
  %16 = call ptr @SearchSysCache1(i32 noundef 42, i64 noundef %15)
  store ptr %16, ptr %7, align 8
  %17 = load ptr, ptr %7, align 8
  %18 = icmp ne ptr %17, null
  br i1 %18, label %35, label %19

19:                                               ; preds = %3
  %20 = load i8, ptr %6, align 1, !range !4, !noundef !5
  %21 = trunc i8 %20 to i1
  br i1 %21, label %34, label %22

22:                                               ; preds = %19
  br label %23

23:                                               ; preds = %22
  br i1 true, label %24, label %26

24:                                               ; preds = %23
  %25 = call zeroext i1 @errstart_cold(i32 noundef 21, ptr noundef null) #11
  br i1 %25, label %28, label %31

26:                                               ; preds = %23
  %27 = call zeroext i1 @errstart(i32 noundef 21, ptr noundef null)
  br i1 %27, label %28, label %31

28:                                               ; preds = %26, %24
  %29 = load i32, ptr %5, align 4
  %30 = call i32 (ptr, ...) @errmsg_internal(ptr noundef @.str.242, i32 noundef %29)
  call void @errfinish(ptr noundef @.str.1, i32 noundef 4180, ptr noundef @__func__.getOpFamilyDescription)
  br label %31

31:                                               ; preds = %28, %26, %24
  unreachable

32:                                               ; No predecessors!
  br label %33

33:                                               ; preds = %32
  br label %34

34:                                               ; preds = %33, %19
  store i32 1, ptr %12, align 4
  br label %84

35:                                               ; preds = %3
  %36 = load ptr, ptr %7, align 8
  %37 = call ptr @GETSTRUCT(ptr noundef %36)
  store ptr %37, ptr %8, align 8
  %38 = load ptr, ptr %8, align 8
  %39 = getelementptr inbounds nuw %struct.FormData_pg_opfamily, ptr %38, i32 0, i32 1
  %40 = load i32, ptr %39, align 4
  %41 = call i64 @ObjectIdGetDatum(i32 noundef %40)
  %42 = call ptr @SearchSysCache1(i32 noundef 2, i64 noundef %41)
  store ptr %42, ptr %9, align 8
  %43 = load ptr, ptr %9, align 8
  %44 = icmp ne ptr %43, null
  br i1 %44, label %59, label %45

45:                                               ; preds = %35
  br label %46

46:                                               ; preds = %45
  br i1 true, label %47, label %49

47:                                               ; preds = %46
  %48 = call zeroext i1 @errstart_cold(i32 noundef 21, ptr noundef null) #11
  br i1 %48, label %51, label %56

49:                                               ; preds = %46
  %50 = call zeroext i1 @errstart(i32 noundef 21, ptr noundef null)
  br i1 %50, label %51, label %56

51:                                               ; preds = %49, %47
  %52 = load ptr, ptr %8, align 8
  %53 = getelementptr inbounds nuw %struct.FormData_pg_opfamily, ptr %52, i32 0, i32 1
  %54 = load i32, ptr %53, align 4
  %55 = call i32 (ptr, ...) @errmsg_internal(ptr noundef @.str.41, i32 noundef %54)
  call void @errfinish(ptr noundef @.str.1, i32 noundef 4188, ptr noundef @__func__.getOpFamilyDescription)
  br label %56

56:                                               ; preds = %51, %49, %47
  unreachable

57:                                               ; No predecessors!
  br label %58

58:                                               ; preds = %57
  br label %59

59:                                               ; preds = %58, %35
  %60 = load ptr, ptr %9, align 8
  %61 = call ptr @GETSTRUCT(ptr noundef %60)
  store ptr %61, ptr %10, align 8
  %62 = load i32, ptr %5, align 4
  %63 = call zeroext i1 @OpfamilyIsVisible(i32 noundef %62)
  br i1 %63, label %64, label %65

64:                                               ; preds = %59
  store ptr null, ptr %11, align 8
  br label %70

65:                                               ; preds = %59
  %66 = load ptr, ptr %8, align 8
  %67 = getelementptr inbounds nuw %struct.FormData_pg_opfamily, ptr %66, i32 0, i32 3
  %68 = load i32, ptr %67, align 4
  %69 = call ptr @get_namespace_name(i32 noundef %68)
  store ptr %69, ptr %11, align 8
  br label %70

70:                                               ; preds = %65, %64
  %71 = load ptr, ptr %4, align 8
  %72 = load ptr, ptr %11, align 8
  %73 = load ptr, ptr %8, align 8
  %74 = getelementptr inbounds nuw %struct.FormData_pg_opfamily, ptr %73, i32 0, i32 2
  %75 = getelementptr inbounds nuw %struct.nameData, ptr %74, i32 0, i32 0
  %76 = getelementptr inbounds [64 x i8], ptr %75, i64 0, i64 0
  %77 = call ptr @quote_qualified_identifier(ptr noundef %72, ptr noundef %76)
  %78 = load ptr, ptr %10, align 8
  %79 = getelementptr inbounds nuw %struct.FormData_pg_am, ptr %78, i32 0, i32 1
  %80 = getelementptr inbounds nuw %struct.nameData, ptr %79, i32 0, i32 0
  %81 = getelementptr inbounds [64 x i8], ptr %80, i64 0, i64 0
  call void (ptr, ptr, ...) @appendStringInfo(ptr noundef %71, ptr noundef @.str.243, ptr noundef %77, ptr noundef %81)
  %82 = load ptr, ptr %9, align 8
  call void @ReleaseSysCache(ptr noundef %82)
  %83 = load ptr, ptr %7, align 8
  call void @ReleaseSysCache(ptr noundef %83)
  store i32 0, ptr %12, align 4
  br label %84

84:                                               ; preds = %70, %34
  call void @llvm.lifetime.end.p0(i64 8, ptr %11) #10
  call void @llvm.lifetime.end.p0(i64 8, ptr %10) #10
  call void @llvm.lifetime.end.p0(i64 8, ptr %9) #10
  call void @llvm.lifetime.end.p0(i64 8, ptr %8) #10
  call void @llvm.lifetime.end.p0(i64 8, ptr %7) #10
  %85 = load i32, ptr %12, align 4
  switch i32 %85, label %87 [
    i32 0, label %86
    i32 1, label %86
  ]

86:                                               ; preds = %84, %84
  ret void

87:                                               ; preds = %84
  unreachable
}