; Function Attrs: nounwind uwtable
define internal fastcc void @getOpFamilyDescription(ptr noundef nonnull %0, i32 noundef %1, i1 noundef zeroext %2) unnamed_addr #0 {
  %4 = zext i32 %1 to i64
  %5 = tail call ptr @SearchSysCache1(i32 noundef 42, i64 noundef %4) #11
  %.not = icmp eq ptr %5, null
  br i1 %.not, label %6, label %10

6:                                                ; preds = %3
  br i1 %2, label %39, label %7

7:                                                ; preds = %6
  %8 = tail call zeroext i1 @errstart_cold(i32 noundef 21, ptr noundef null) #12
  tail call void @llvm.assume(i1 %8)
  %9 = tail call i32 (ptr, ...) @errmsg_internal(ptr noundef nonnull @.str.242, i32 noundef %1) #11
  tail call void @errfinish(ptr noundef nonnull @.str.1, i32 noundef 4180, ptr noundef nonnull @__func__.getOpFamilyDescription) #11
  unreachable

10:                                               ; preds = %3
  %11 = getelementptr i8, ptr %5, i64 16
  %.val19 = load ptr, ptr %11, align 8
  %12 = getelementptr inbounds nuw i8, ptr %.val19, i64 22
  %13 = load i8, ptr %12, align 2
  %14 = zext i8 %13 to i64
  %15 = getelementptr inbounds nuw i8, ptr %.val19, i64 %14
  %16 = getelementptr inbounds nuw i8, ptr %15, i64 4
  %17 = load i32, ptr %16, align 4
  %18 = zext i32 %17 to i64
  %19 = tail call ptr @SearchSysCache1(i32 noundef 2, i64 noundef %18) #11
  %.not18 = icmp eq ptr %19, null
  br i1 %.not18, label %20, label %24

20:                                               ; preds = %10
  %21 = tail call zeroext i1 @errstart_cold(i32 noundef 21, ptr noundef null) #12
  tail call void @llvm.assume(i1 %21)
  %22 = load i32, ptr %16, align 4
  %23 = tail call i32 (ptr, ...) @errmsg_internal(ptr noundef nonnull @.str.41, i32 noundef %22) #11
  tail call void @errfinish(ptr noundef nonnull @.str.1, i32 noundef 4188, ptr noundef nonnull @__func__.getOpFamilyDescription) #11
  unreachable

24:                                               ; preds = %10
  %25 = getelementptr i8, ptr %19, i64 16
  %.val = load ptr, ptr %25, align 8
  %26 = getelementptr inbounds nuw i8, ptr %.val, i64 22
  %27 = load i8, ptr %26, align 2
  %28 = zext i8 %27 to i64
  %29 = getelementptr inbounds nuw i8, ptr %.val, i64 %28
  %30 = tail call zeroext i1 @OpfamilyIsVisible(i32 noundef %1) #11
  br i1 %30, label %35, label %31

31:                                               ; preds = %24
  %32 = getelementptr inbounds nuw i8, ptr %15, i64 72
  %33 = load i32, ptr %32, align 4
  %34 = tail call ptr @get_namespace_name(i32 noundef %33) #11
  br label %35

35:                                               ; preds = %24, %31
  %.0 = phi ptr [ %34, %31 ], [ null, %24 ]
  %36 = getelementptr inbounds nuw i8, ptr %15, i64 8
  %37 = tail call ptr @quote_qualified_identifier(ptr noundef %.0, ptr noundef nonnull %36) #11
  %38 = getelementptr inbounds nuw i8, ptr %29, i64 4
  tail call void (ptr, ptr, ...) @appendStringInfo(ptr noundef nonnull %0, ptr noundef nonnull @.str.243, ptr noundef %37, ptr noundef nonnull %38) #11
  tail call void @ReleaseSysCache(ptr noundef nonnull %19) #11
  tail call void @ReleaseSysCache(ptr noundef nonnull %5) #11
  br label %39

39:                                               ; preds = %6, %35
  ret void
}